target datalayout = "e-m:e-p270:32:32-p271:32:32-p272:64:64-i64:64-i128:128-f80:128-n8:16:32:64-S128"
target triple = "x86_64-pc-linux-gnu"

%"struct.testing::internal::MatcherBase<(anonymous namespace)::ConstructionTester *const &>::VTable" = type { ptr, ptr, ptr, ptr }
%"class.testing::MatcherDescriberInterface" = type { ptr }
%"struct.testing::internal::SharedPayloadBase" = type { %"struct.std::atomic" }
%"struct.std::atomic" = type { %"struct.std::__atomic_base" }
%"struct.std::__atomic_base" = type { i32 }
%"class.testing::internal::MatcherBase.324" = type { %"class.testing::MatcherDescriberInterface", ptr, %"union.testing::internal::MatcherBase<(anonymous namespace)::ConstructionTester *const &>::Buffer" }
%"union.testing::internal::MatcherBase<(anonymous namespace)::ConstructionTester *const &>::Buffer" = type { ptr }

; Function Attrs: alwaysinline mustprogress nounwind uwtable
define linkonce_odr dso_local noundef i32 @_ZNSt13__atomic_baseIiE9fetch_subEiSt12memory_order(ptr noundef nonnull align 4 dereferenceable(4) %0, i32 noundef %1, i32 noundef %2) #16 comdat align 2 {
  %4 = alloca ptr, align 8
  %5 = alloca i32, align 4
  %6 = alloca i32, align 4
  %7 = alloca i32, align 4
  %8 = alloca i32, align 4
  store ptr %0, ptr %4, align 8, !tbaa !251
  store i32 %1, ptr %5, align 4, !tbaa !17
  store i32 %2, ptr %6, align 4, !tbaa !253
  %9 = load ptr, ptr %4, align 8
  %10 = getelementptr inbounds nuw %"struct.std::__atomic_base", ptr %9, i32 0, i32 0
  %11 = load i32, ptr %6, align 4, !tbaa !253
  %12 = load i32, ptr %5, align 4, !tbaa !17
  store i32 %12, ptr %7, align 4, !tbaa !17
  switch i32 %11, label %13 [
    i32 1, label %16
    i32 2, label %16
    i32 3, label %19
    i32 4, label %22
    i32 5, label %25
  ]

13:                                               ; preds = %3
  %14 = load i32, ptr %7, align 4
  %15 = atomicrmw sub ptr %10, i32 %14 monotonic, align 4
  store i32 %15, ptr %8, align 4
  br label %28

16:                                               ; preds = %3, %3
  %17 = load i32, ptr %7, align 4
  %18 = atomicrmw sub ptr %10, i32 %17 acquire, align 4
  store i32 %18, ptr %8, align 4
  br label %28

19:                                               ; preds = %3
  %20 = load i32, ptr %7, align 4
  %21 = atomicrmw sub ptr %10, i32 %20 release, align 4
  store i32 %21, ptr %8, align 4
  br label %28

22:                                               ; preds = %3
  %23 = load i32, ptr %7, align 4
  %24 = atomicrmw sub ptr %10, i32 %23 acq_rel, align 4
  store i32 %24, ptr %8, align 4
  br label %28

25:                                               ; preds = %3
  %26 = load i32, ptr %7, align 4
  %27 = atomicrmw sub ptr %10, i32 %26 seq_cst, align 4
  store i32 %27, ptr %8, align 4
  br label %28

28:                                               ; preds = %25, %22, %19, %16, %13
  %29 = load i32, ptr %8, align 4, !tbaa !17
  ret i32 %29
}

; Function Attrs: mustprogress nounwind uwtable
define linkonce_odr dso_local noundef zeroext i1 @_ZN7testing8internal17SharedPayloadBase5UnrefEv(ptr noundef nonnull align 4 dereferenceable(4) %0) #5 comdat align 2 {
  %2 = alloca ptr, align 8
  store ptr %0, ptr %2, align 8, !tbaa !249
  %3 = load ptr, ptr %2, align 8
  %4 = getelementptr inbounds nuw %"struct.testing::internal::SharedPayloadBase", ptr %3, i32 0, i32 0
  %5 = call noundef i32 @_ZNSt13__atomic_baseIiE9fetch_subEiSt12memory_order(ptr noundef nonnull align 4 dereferenceable(4) %4, i32 noundef 1, i32 noundef 4) #3
  %6 = icmp eq i32 %5, 1
  ret i1 %6
}

; Function Attrs: mustprogress nounwind uwtable
define internal noundef zeroext i1 @_ZNK7testing8internal11MatcherBaseIRKPN12_GLOBAL__N_118ConstructionTesterEE8IsSharedEv(ptr noundef nonnull align 8 dereferenceable(24) %0) #5 align 2 {
  %2 = alloca ptr, align 8
  store ptr %0, ptr %2, align 8, !tbaa !1384
  %3 = load ptr, ptr %2, align 8
  %4 = getelementptr inbounds nuw %"class.testing::internal::MatcherBase.324", ptr %3, i32 0, i32 1
  %5 = load ptr, ptr %4, align 8, !tbaa !1386
  %6 = icmp ne ptr %5, null
  br i1 %6, label %7, label %13

7:                                                ; preds = %1
  %8 = getelementptr inbounds nuw %"class.testing::internal::MatcherBase.324", ptr %3, i32 0, i32 1
  %9 = load ptr, ptr %8, align 8, !tbaa !1386
  %10 = getelementptr inbounds nuw %"struct.testing::internal::MatcherBase<(anonymous namespace)::ConstructionTester *const &>::VTable", ptr %9, i32 0, i32 3
  %11 = load ptr, ptr %10, align 8, !tbaa !1417
  %12 = icmp ne ptr %11, null
  br label %13

13:                                               ; preds = %7, %1
  %14 = phi i1 [ false, %1 ], [ %12, %7 ]
  ret i1 %14
}

; Function Attrs: mustprogress nounwind uwtable
define linkonce_odr dso_local void @_ZN7testing25MatcherDescriberInterfaceD2Ev(ptr noundef nonnull align 8 dereferenceable(8) %0) unnamed_addr #5 comdat align 2 {
  %2 = alloca ptr, align 8
  store ptr %0, ptr %2, align 8, !tbaa !229
  ret void
}

; Function Attrs: mustprogress uwtable
define internal void @_ZN7testing8internal11MatcherBaseIRKPN12_GLOBAL__N_118ConstructionTesterEE7DestroyEv(ptr noundef nonnull align 8 dereferenceable(24) %0) #6 align 2 {
  %2 = alloca ptr, align 8
  store ptr %0, ptr %2, align 8, !tbaa !1384
  %3 = load ptr, ptr %2, align 8
  %4 = call noundef zeroext i1 @_ZNK7testing8internal11MatcherBaseIRKPN12_GLOBAL__N_118ConstructionTesterEE8IsSharedEv(ptr noundef nonnull align 8 dereferenceable(24) %3)
  br i1 %4, label %5, label %16

5:                                                ; preds = %1
  %6 = getelementptr inbounds nuw %"class.testing::internal::MatcherBase.324", ptr %3, i32 0, i32 2
  %7 = load ptr, ptr %6, align 8, !tbaa !105
  %8 = call noundef zeroext i1 @_ZN7testing8internal17SharedPayloadBase5UnrefEv(ptr noundef nonnull align 4 dereferenceable(4) %7)
  br i1 %8, label %9, label %16

9:                                                ; preds = %5
  %10 = getelementptr inbounds nuw %"class.testing::internal::MatcherBase.324", ptr %3, i32 0, i32 1
  %11 = load ptr, ptr %10, align 8, !tbaa !1386
  %12 = getelementptr inbounds nuw %"struct.testing::internal::MatcherBase<(anonymous namespace)::ConstructionTester *const &>::VTable", ptr %11, i32 0, i32 3
  %13 = load ptr, ptr %12, align 8, !tbaa !1417
  %14 = getelementptr inbounds nuw %"class.testing::internal::MatcherBase.324", ptr %3, i32 0, i32 2
  %15 = load ptr, ptr %14, align 8, !tbaa !105
  call void %13(ptr noundef %15)
  br label %16

16:                                               ; preds = %9, %5, %1
  ret void
}

; Function Attrs: mustprogress nounwind uwtable
define internal void @_ZN7testing8internal11MatcherBaseIRKPN12_GLOBAL__N_118ConstructionTesterEED2Ev(ptr noundef nonnull align 8 dereferenceable(24) %0) unnamed_addr #5 align 2 personality ptr @__gxx_personality_v0 {
  %2 = alloca ptr, align 8
  store ptr %0, ptr %2, align 8, !tbaa !1384
  %3 = load ptr, ptr %2, align 8
  store ptr getelementptr inbounds inrange(-16, 32) ({ [6 x ptr] }, ptr @_ZTVN7testing8internal11MatcherBaseIRKPN12_GLOBAL__N_118ConstructionTesterEEE, i32 0, i32 0, i32 2), ptr %3, align 8, !tbaa !27
  invoke void @_ZN7testing8internal11MatcherBaseIRKPN12_GLOBAL__N_118ConstructionTesterEE7DestroyEv(ptr noundef nonnull align 8 dereferenceable(24) %3)
          to label %4 unwind label %5

4:                                                ; preds = %1
  call void @_ZN7testing25MatcherDescriberInterfaceD2Ev(ptr noundef nonnull align 8 dereferenceable(8) %3) #3
  ret void

5:                                                ; preds = %1
  %6 = landingpad { ptr, i32 }
          catch ptr null
  %7 = extractvalue { ptr, i32 } %6, 0
  call void @__clang_call_terminate(ptr %7) #25
  unreachable
}